target datalayout = "e-m:e-p270:32:32-p271:32:32-p272:64:64-i64:64-i128:128-f80:128-n8:16:32:64-S128"
target triple = "x86_64-pc-linux-gnu"

%struct.pdf_struct = type { ptr, i32, i32, i32, i32, i32, ptr, i64, ptr, i64, i64, i64, ptr, ptr, i32, i32, ptr, i32, ptr, i32, %struct.pdf_stats, ptr, i32, i32 }
%struct.pdf_stats = type { i32, i32, i32, i32, i32, i32, i32, i32, i32, i32, i32, i32, i32, i32, i32, i32, i32, i32, i32, i32, i32, i32, i32, i32, i32, ptr, ptr, ptr, ptr, ptr, ptr, ptr, ptr }
%struct.objstm_struct = type { i32, i32, i32, i32, i32, i32, ptr, i64 }
%struct.pdf_obj = type { i32, i64, i32, i32, i32, i32, [64 x i32], ptr, i64, ptr, ptr, i8 }
%struct.cli_ctx_tag = type { ptr, ptr, ptr, ptr, ptr, ptr, ptr, i64, ptr, i32, i32, ptr, i32, i32, ptr, [16 x i8], ptr, ptr, ptr, ptr, ptr, ptr, %struct.timeval, i8, i8 }
%struct.timeval = type { i64, i64 }
%struct.cl_scan_options = type { i32, i32, i32, i32, i32 }
%struct.pdf_stats_entry = type { ptr, %struct.pdf_stats_metadata }
%struct.pdf_stats_metadata = type { i32, ptr, i32 }

@.str.281 = private unnamed_addr constant [9 x i8] c"/Creator\00", align 1

; Function Attrs: nounwind uwtable
define internal void @Creator_cb(ptr noundef %0, ptr noundef %1, ptr noundef %2) #0 {
  %4 = alloca ptr, align 8
  %5 = alloca ptr, align 8
  %6 = alloca ptr, align 8
  %7 = alloca ptr, align 8
  %8 = alloca ptr, align 8
  store ptr %0, ptr %4, align 8
  store ptr %1, ptr %5, align 8
  store ptr %2, ptr %6, align 8
  store ptr null, ptr %7, align 8
  %9 = load ptr, ptr %4, align 8
  %10 = icmp eq ptr null, %9
  br i1 %10, label %11, label %12

11:                                               ; preds = %3
  br label %93

12:                                               ; preds = %3
  %13 = load ptr, ptr %4, align 8
  %14 = getelementptr inbounds %struct.pdf_struct, ptr %13, i32 0, i32 12
  %15 = load ptr, ptr %14, align 8
  store ptr %15, ptr %7, align 8
  %16 = load ptr, ptr %7, align 8
  %17 = getelementptr inbounds %struct.cli_ctx_tag, ptr %16, i32 0, i32 8
  %18 = load ptr, ptr %17, align 8
  %19 = getelementptr inbounds %struct.cl_scan_options, ptr %18, i32 0, i32 0
  %20 = load i32, ptr %19, align 4
  %21 = and i32 %20, 2
  %22 = icmp ne i32 %21, 0
  br i1 %22, label %24, label %23

23:                                               ; preds = %12
  br label %93

24:                                               ; preds = %12
  %25 = load ptr, ptr %4, align 8
  %26 = getelementptr inbounds %struct.pdf_struct, ptr %25, i32 0, i32 20
  %27 = getelementptr inbounds %struct.pdf_stats, ptr %26, i32 0, i32 26
  %28 = load ptr, ptr %27, align 8
  %29 = icmp ne ptr %28, null
  br i1 %29, label %93, label %30

30:                                               ; preds = %24
  %31 = load ptr, ptr %5, align 8
  %32 = getelementptr inbounds %struct.pdf_obj, ptr %31, i32 0, i32 9
  %33 = load ptr, ptr %32, align 8
  %34 = icmp ne ptr %33, null
  br i1 %34, label %35, label %46

35:                                               ; preds = %30
  %36 = load ptr, ptr %5, align 8
  %37 = getelementptr inbounds %struct.pdf_obj, ptr %36, i32 0, i32 0
  %38 = load i32, ptr %37, align 8
  %39 = load ptr, ptr %5, align 8
  %40 = getelementptr inbounds %struct.pdf_obj, ptr %39, i32 0, i32 9
  %41 = load ptr, ptr %40, align 8
  %42 = getelementptr inbounds %struct.objstm_struct, ptr %41, i32 0, i32 6
  %43 = load ptr, ptr %42, align 8
  %44 = zext i32 %38 to i64
  %45 = getelementptr inbounds i8, ptr %43, i64 %44
  br label %55

46:                                               ; preds = %30
  %47 = load ptr, ptr %5, align 8
  %48 = getelementptr inbounds %struct.pdf_obj, ptr %47, i32 0, i32 0
  %49 = load i32, ptr %48, align 8
  %50 = load ptr, ptr %4, align 8
  %51 = getelementptr inbounds %struct.pdf_struct, ptr %50, i32 0, i32 8
  %52 = load ptr, ptr %51, align 8
  %53 = zext i32 %49 to i64
  %54 = getelementptr inbounds i8, ptr %52, i64 %53
  br label %55

55:                                               ; preds = %46, %35
  %56 = phi ptr [ %45, %35 ], [ %54, %46 ]
  store ptr %56, ptr %8, align 8
  %57 = call noalias ptr @calloc(i64 noundef 1, i64 noundef 32) #9
  %58 = load ptr, ptr %4, align 8
  %59 = getelementptr inbounds %struct.pdf_struct, ptr %58, i32 0, i32 20
  %60 = getelementptr inbounds %struct.pdf_stats, ptr %59, i32 0, i32 26
  store ptr %57, ptr %60, align 8
  %61 = load ptr, ptr %4, align 8
  %62 = getelementptr inbounds %struct.pdf_struct, ptr %61, i32 0, i32 20
  %63 = getelementptr inbounds %struct.pdf_stats, ptr %62, i32 0, i32 26
  %64 = load ptr, ptr %63, align 8
  %65 = icmp ne ptr %64, null
  br i1 %65, label %67, label %66

66:                                               ; preds = %55
  br label %93

67:                                               ; preds = %55
  %68 = load ptr, ptr %4, align 8
  %69 = getelementptr inbounds %struct.pdf_struct, ptr %68, i32 0, i32 23
  %70 = load i32, ptr %69, align 4
  %71 = add i32 %70, 1
  store i32 %71, ptr %69, align 4
  %72 = load ptr, ptr %4, align 8
  %73 = load ptr, ptr %5, align 8
  %74 = load ptr, ptr %8, align 8
  %75 = load ptr, ptr %5, align 8
  %76 = getelementptr inbounds %struct.pdf_obj, ptr %75, i32 0, i32 1
  %77 = load i64, ptr %76, align 8
  %78 = load ptr, ptr %4, align 8
  %79 = getelementptr inbounds %struct.pdf_struct, ptr %78, i32 0, i32 20
  %80 = getelementptr inbounds %struct.pdf_stats, ptr %79, i32 0, i32 26
  %81 = load ptr, ptr %80, align 8
  %82 = getelementptr inbounds %struct.pdf_stats_entry, ptr %81, i32 0, i32 1
  %83 = call ptr @pdf_parse_string(ptr noundef %72, ptr noundef %73, ptr noundef %74, i64 noundef %77, ptr noundef @.str.281, ptr noundef null, ptr noundef %82)
  %84 = load ptr, ptr %4, align 8
  %85 = getelementptr inbounds %struct.pdf_struct, ptr %84, i32 0, i32 20
  %86 = getelementptr inbounds %struct.pdf_stats, ptr %85, i32 0, i32 26
  %87 = load ptr, ptr %86, align 8
  %88 = getelementptr inbounds %struct.pdf_stats_entry, ptr %87, i32 0, i32 0
  store ptr %83, ptr %88, align 8
  %89 = load ptr, ptr %4, align 8
  %90 = getelementptr inbounds %struct.pdf_struct, ptr %89, i32 0, i32 23
  %91 = load i32, ptr %90, align 4
  %92 = add i32 %91, -1
  store i32 %92, ptr %90, align 4
  br label %93

93:                                               ; preds = %67, %66, %24, %23, %11
  ret void
}